target datalayout = "e-m:e-p270:32:32-p271:32:32-p272:64:64-i64:64-i128:128-f80:128-n8:16:32:64-S128"
target triple = "x86_64-pc-linux-gnu"

%struct.Vec_Wrd_t_ = type { i32, i32, ptr }

; Function Attrs: inlinehint nounwind uwtable
define internal i32 @Abc_TtGetBit(ptr noundef %0, i32 noundef %1) #3 {
  %3 = alloca ptr, align 8
  %4 = alloca i32, align 4
  store ptr %0, ptr %3, align 8, !tbaa !30
  store i32 %1, ptr %4, align 4, !tbaa !14
  %5 = load ptr, ptr %3, align 8, !tbaa !30
  %6 = load i32, ptr %4, align 4, !tbaa !14
  %7 = ashr i32 %6, 6
  %8 = sext i32 %7 to i64
  %9 = getelementptr inbounds i64, ptr %5, i64 %8
  %10 = load i64, ptr %9, align 8, !tbaa !79
  %11 = load i32, ptr %4, align 4, !tbaa !14
  %12 = and i32 %11, 63
  %13 = zext i32 %12 to i64
  %14 = lshr i64 %10, %13
  %15 = trunc i64 %14 to i32
  %16 = and i32 %15, 1
  ret i32 %16
}

; Function Attrs: inlinehint nounwind uwtable
define internal ptr @Vec_WrdEntryP(ptr noundef %0, i32 noundef %1) #3 {
  %3 = alloca ptr, align 8
  %4 = alloca i32, align 4
  store ptr %0, ptr %3, align 8, !tbaa !71
  store i32 %1, ptr %4, align 4, !tbaa !14
  %5 = load ptr, ptr %3, align 8, !tbaa !71
  %6 = getelementptr inbounds nuw %struct.Vec_Wrd_t_, ptr %5, i32 0, i32 2
  %7 = load ptr, ptr %6, align 8, !tbaa !78
  %8 = load i32, ptr %4, align 4, !tbaa !14
  %9 = sext i32 %8 to i64
  %10 = getelementptr inbounds i64, ptr %7, i64 %9
  ret ptr %10
}

; Function Attrs: nounwind uwtable
define i32 @Gia_ManSimEvalMaxValue(ptr noundef %0, i32 noundef %1, i32 noundef %2, i32 noundef %3, i32 noundef %4) #0 {
  %6 = alloca ptr, align 8
  %7 = alloca i32, align 4
  %8 = alloca i32, align 4
  %9 = alloca i32, align 4
  %10 = alloca i32, align 4
  %11 = alloca i32, align 4
  %12 = alloca i32, align 4
  %13 = alloca i32, align 4
  %14 = alloca i32, align 4
  %15 = alloca i32, align 4
  %16 = alloca ptr, align 8
  store ptr %0, ptr %6, align 8, !tbaa !71
  store i32 %1, ptr %7, align 4, !tbaa !14
  store i32 %2, ptr %8, align 4, !tbaa !14
  store i32 %3, ptr %9, align 4, !tbaa !14
  store i32 %4, ptr %10, align 4, !tbaa !14
  call void @llvm.lifetime.start.p0(i64 4, ptr %11) #13
  call void @llvm.lifetime.start.p0(i64 4, ptr %12) #13
  store i32 -1, ptr %12, align 4, !tbaa !14
  call void @llvm.lifetime.start.p0(i64 4, ptr %13) #13
  store i32 -1, ptr %13, align 4, !tbaa !14
  store i32 0, ptr %11, align 4, !tbaa !14
  br label %17

17:                                               ; preds = %57, %5
  %18 = load i32, ptr %11, align 4, !tbaa !14
  %19 = load i32, ptr %8, align 4, !tbaa !14
  %20 = icmp slt i32 %18, %19
  br i1 %20, label %21, label %60

21:                                               ; preds = %17
  call void @llvm.lifetime.start.p0(i64 4, ptr %14) #13
  call void @llvm.lifetime.start.p0(i64 4, ptr %15) #13
  store i32 0, ptr %15, align 4, !tbaa !14
  store i32 0, ptr %14, align 4, !tbaa !14
  br label %22

22:                                               ; preds = %46, %21
  %23 = load i32, ptr %14, align 4, !tbaa !14
  %24 = load i32, ptr %9, align 4, !tbaa !14
  %25 = icmp slt i32 %23, %24
  br i1 %25, label %26, label %49

26:                                               ; preds = %22
  call void @llvm.lifetime.start.p0(i64 8, ptr %16) #13
  %27 = load ptr, ptr %6, align 8, !tbaa !71
  %28 = load i32, ptr %11, align 4, !tbaa !14
  %29 = load i32, ptr %9, align 4, !tbaa !14
  %30 = mul nsw i32 %28, %29
  %31 = load i32, ptr %14, align 4, !tbaa !14
  %32 = add nsw i32 %30, %31
  %33 = load i32, ptr %7, align 4, !tbaa !14
  %34 = mul nsw i32 %32, %33
  %35 = call ptr @Vec_WrdEntryP(ptr noundef %27, i32 noundef %34)
  store ptr %35, ptr %16, align 8, !tbaa !30
  %36 = load ptr, ptr %16, align 8, !tbaa !30
  %37 = load i32, ptr %10, align 4, !tbaa !14
  %38 = call i32 @Abc_TtGetBit(ptr noundef %36, i32 noundef %37)
  %39 = icmp ne i32 %38, 0
  br i1 %39, label %40, label %45

40:                                               ; preds = %26
  %41 = load i32, ptr %14, align 4, !tbaa !14
  %42 = shl i32 1, %41
  %43 = load i32, ptr %15, align 4, !tbaa !14
  %44 = or i32 %43, %42
  store i32 %44, ptr %15, align 4, !tbaa !14
  br label %45

45:                                               ; preds = %40, %26
  call void @llvm.lifetime.end.p0(i64 8, ptr %16) #13
  br label %46

46:                                               ; preds = %45
  %47 = load i32, ptr %14, align 4, !tbaa !14
  %48 = add nsw i32 %47, 1
  store i32 %48, ptr %14, align 4, !tbaa !14
  br label %22, !llvm.loop !98

49:                                               ; preds = %22
  %50 = load i32, ptr %12, align 4, !tbaa !14
  %51 = load i32, ptr %15, align 4, !tbaa !14
  %52 = icmp sle i32 %50, %51
  br i1 %52, label %53, label %56

53:                                               ; preds = %49
  %54 = load i32, ptr %15, align 4, !tbaa !14
  store i32 %54, ptr %12, align 4, !tbaa !14
  %55 = load i32, ptr %11, align 4, !tbaa !14
  store i32 %55, ptr %13, align 4, !tbaa !14
  br label %56

56:                                               ; preds = %53, %49
  call void @llvm.lifetime.end.p0(i64 4, ptr %15) #13
  call void @llvm.lifetime.end.p0(i64 4, ptr %14) #13
  br label %57

57:                                               ; preds = %56
  %58 = load i32, ptr %11, align 4, !tbaa !14
  %59 = add nsw i32 %58, 1
  store i32 %59, ptr %11, align 4, !tbaa !14
  br label %17, !llvm.loop !99

60:                                               ; preds = %17
  %61 = load i32, ptr %13, align 4, !tbaa !14
  call void @llvm.lifetime.end.p0(i64 4, ptr %13) #13
  call void @llvm.lifetime.end.p0(i64 4, ptr %12) #13
  call void @llvm.lifetime.end.p0(i64 4, ptr %11) #13
  ret i32 %61
}