; Function Attrs: nofree norecurse nosync nounwind memory(read, inaccessiblemem: none) uwtable
define i32 @Gia_ManSimEvalMaxValue(ptr noundef readonly captures(none) %0, i32 noundef %1, i32 noundef %2, i32 noundef %3, i32 noundef %4) local_unnamed_addr #11 {
  %6 = icmp sgt i32 %2, 0
  br i1 %6, label %.preheader.lr.ph, label %._crit_edge33

.preheader.lr.ph:                                 ; preds = %5
  %7 = icmp sgt i32 %3, 0
  %8 = and i32 %4, 63
  %9 = zext nneg i32 %8 to i64
  %10 = shl nuw i64 1, %9
  br i1 %7, label %.preheader.lr.ph.split.us, label %.preheader

.preheader.lr.ph.split.us:                        ; preds = %.preheader.lr.ph
  %11 = ashr i32 %4, 6
  %12 = sext i32 %11 to i64
  %13 = getelementptr i8, ptr %0, i64 8
  %.val.us = load ptr, ptr %13, align 8, !tbaa !59
  %invariant.gep.us = getelementptr i64, ptr %.val.us, i64 %12
  %14 = sext i32 %1 to i64
  %15 = zext nneg i32 %3 to i64
  %wide.trip.count41 = zext nneg i32 %2 to i64
  %wide.trip.count = zext nneg i32 %3 to i64
  br label %.preheader.us

.preheader.us:                                    ; preds = %._crit_edge.us, %.preheader.lr.ph.split.us
  %indvars.iv38 = phi i64 [ %indvars.iv.next39, %._crit_edge.us ], [ 0, %.preheader.lr.ph.split.us ]
  %.02131.us = phi i32 [ %spec.select27.us, %._crit_edge.us ], [ -1, %.preheader.lr.ph.split.us ]
  %.02330.us = phi i32 [ %spec.select.us, %._crit_edge.us ], [ -1, %.preheader.lr.ph.split.us ]
  %16 = mul nuw nsw i64 %indvars.iv38, %15
  br label %17

17:                                               ; preds = %.preheader.us, %17
  %indvars.iv = phi i64 [ 0, %.preheader.us ], [ %indvars.iv.next, %17 ]
  %.01929.us = phi i32 [ 0, %.preheader.us ], [ %.1.us, %17 ]
  %18 = add nuw nsw i64 %indvars.iv, %16
  %19 = mul nsw i64 %18, %14
  %gep.us = getelementptr i64, ptr %invariant.gep.us, i64 %19
  %20 = load i64, ptr %gep.us, align 8, !tbaa !62
  %21 = and i64 %20, %10
  %.not26.us = icmp eq i64 %21, 0
  %22 = trunc nuw nsw i64 %indvars.iv to i32
  %23 = shl nuw i32 1, %22
  %24 = select i1 %.not26.us, i32 0, i32 %23
  %.1.us = or i32 %24, %.01929.us
  %indvars.iv.next = add nuw nsw i64 %indvars.iv, 1
  %exitcond37.not = icmp eq i64 %indvars.iv.next, %wide.trip.count
  br i1 %exitcond37.not, label %._crit_edge.us, label %17, !llvm.loop !84

._crit_edge.us:                                   ; preds = %17
  %.not.us = icmp sgt i32 %.02330.us, %.1.us
  %spec.select.us = tail call i32 @llvm.smax.i32(i32 %.02330.us, i32 %.1.us)
  %25 = trunc nuw nsw i64 %indvars.iv38 to i32
  %spec.select27.us = select i1 %.not.us, i32 %.02131.us, i32 %25
  %indvars.iv.next39 = add nuw nsw i64 %indvars.iv38, 1
  %exitcond42.not = icmp eq i64 %indvars.iv.next39, %wide.trip.count41
  br i1 %exitcond42.not, label %._crit_edge33, label %.preheader.us, !llvm.loop !85

.preheader:                                       ; preds = %.preheader.lr.ph, %.preheader
  %.032 = phi i32 [ %26, %.preheader ], [ 0, %.preheader.lr.ph ]
  %26 = add nuw nsw i32 %.032, 1
  %exitcond.not = icmp eq i32 %26, %2
  br i1 %exitcond.not, label %._crit_edge33, label %.preheader, !llvm.loop !85

._crit_edge33:                                    ; preds = %.preheader, %._crit_edge.us, %5
  %.021.lcssa = phi i32 [ -1, %5 ], [ %spec.select27.us, %._crit_edge.us ], [ %.032, %.preheader ]
  ret i32 %.021.lcssa
}